; Function Attrs: nofree norecurse nosync nounwind memory(argmem: readwrite) uwtable
define internal void @pred16x16_vertical_add_12_c(ptr noundef captures(none) %0, ptr noundef readonly captures(none) %1, ptr noundef captures(none) %2, i64 noundef %3) #3 {
  %5 = ashr i64 %3, 1
  %6 = sub nsw i64 0, %5
  %invariant.gep = getelementptr i16, ptr %0, i64 %6
  %7 = and i64 %3, -2
  %.idx.i = mul nsw i64 %5, 6
  %.idx28.i = shl nsw i64 %5, 3
  br label %8

8:                                                ; preds = %4, %pred4x4_vertical_add_12_c.exit
  %indvars.iv = phi i64 [ 0, %4 ], [ %indvars.iv.next, %pred4x4_vertical_add_12_c.exit ]
  %9 = getelementptr inbounds nuw i32, ptr %1, i64 %indvars.iv
  %10 = load i32, ptr %9, align 4, !tbaa !56
  %11 = sext i32 %10 to i64
  %.idx = shl nuw nsw i64 %indvars.iv, 6
  %12 = getelementptr inbounds nuw i8, ptr %2, i64 %.idx
  %gep = getelementptr i8, ptr %invariant.gep, i64 %11
  br label %13

13:                                               ; preds = %13, %8
  %.031.i = phi ptr [ %12, %8 ], [ %35, %13 ]
  %.02630.i = phi ptr [ %gep, %8 ], [ %34, %13 ]
  %.02729.i = phi i32 [ 0, %8 ], [ %36, %13 ]
  %14 = load i16, ptr %.02630.i, align 2, !tbaa !9
  %15 = load i32, ptr %.031.i, align 4, !tbaa !56
  %16 = trunc i32 %15 to i16
  %17 = add i16 %14, %16
  %18 = getelementptr inbounds i16, ptr %.02630.i, i64 %5
  store i16 %17, ptr %18, align 2, !tbaa !9
  %19 = getelementptr inbounds nuw i8, ptr %.031.i, i64 16
  %20 = load i32, ptr %19, align 4, !tbaa !56
  %21 = trunc i32 %20 to i16
  %22 = add i16 %17, %21
  %23 = getelementptr inbounds i16, ptr %.02630.i, i64 %7
  store i16 %22, ptr %23, align 2, !tbaa !9
  %24 = getelementptr inbounds nuw i8, ptr %.031.i, i64 32
  %25 = load i32, ptr %24, align 4, !tbaa !56
  %26 = trunc i32 %25 to i16
  %27 = add i16 %22, %26
  %28 = getelementptr inbounds i8, ptr %.02630.i, i64 %.idx.i
  store i16 %27, ptr %28, align 2, !tbaa !9
  %29 = getelementptr inbounds nuw i8, ptr %.031.i, i64 48
  %30 = load i32, ptr %29, align 4, !tbaa !56
  %31 = trunc i32 %30 to i16
  %32 = add i16 %27, %31
  %33 = getelementptr inbounds i8, ptr %.02630.i, i64 %.idx28.i
  store i16 %32, ptr %33, align 2, !tbaa !9
  %34 = getelementptr inbounds nuw i8, ptr %.02630.i, i64 2
  %35 = getelementptr inbounds nuw i8, ptr %.031.i, i64 4
  %36 = add nuw nsw i32 %.02729.i, 1
  %exitcond.not.i = icmp eq i32 %36, 4
  br i1 %exitcond.not.i, label %pred4x4_vertical_add_12_c.exit, label %13, !llvm.loop !174

pred4x4_vertical_add_12_c.exit:                   ; preds = %13
  tail call void @llvm.memset.p0.i64(ptr noundef nonnull align 2 dereferenceable(64) %12, i8 0, i64 64, i1 false)
  %indvars.iv.next = add nuw nsw i64 %indvars.iv, 1
  %exitcond.not = icmp eq i64 %indvars.iv.next, 16
  br i1 %exitcond.not, label %37, label %8, !llvm.loop !186

37:                                               ; preds = %pred4x4_vertical_add_12_c.exit
  ret void
}